; Function Attrs: nounwind uwtable
define range(i32 -1, 1) i32 @H5Tlock(i64 noundef %0) local_unnamed_addr #0 {
  %2 = load i8, ptr @H5_libinit_g, align 1
  %3 = trunc i8 %2 to i1
  %4 = load i8, ptr @H5_libterm_g, align 1
  %5 = trunc i8 %4 to i1
  %6 = select i1 %3, i1 true, i1 %5
  br i1 %6, label %14, label %7

7:                                                ; preds = %1
  %8 = tail call i32 @H5_init_library() #17
  %9 = icmp slt i32 %8, 0
  br i1 %9, label %10, label %14

10:                                               ; preds = %7
  %11 = load i64, ptr @H5E_FUNC_g, align 8
  %12 = load i64, ptr @H5E_CANTINIT_g, align 8
  %13 = tail call i32 (ptr, ptr, i32, i64, i64, ptr, ...) @H5E_printf_stack(ptr noundef nonnull @.str.2, ptr noundef nonnull @__func__.H5Tlock, i32 noundef 2188, i64 noundef %11, i64 noundef %12, ptr noundef nonnull @.str.221) #17
  br label %.thread24

14:                                               ; preds = %7, %1
  %15 = tail call i32 @H5CX_push() #17
  %16 = icmp slt i32 %15, 0
  br i1 %16, label %17, label %21

17:                                               ; preds = %14
  %18 = load i64, ptr @H5E_FUNC_g, align 8
  %19 = load i64, ptr @H5E_CANTSET_g, align 8
  %20 = tail call i32 (ptr, ptr, i32, i64, i64, ptr, ...) @H5E_printf_stack(ptr noundef nonnull @.str.2, ptr noundef nonnull @__func__.H5Tlock, i32 noundef 2188, i64 noundef %18, i64 noundef %19, ptr noundef nonnull @.str.222) #17
  br label %.thread24

21:                                               ; preds = %14
  %22 = tail call i32 @H5E_clear_stack() #17
  %23 = tail call ptr @H5I_object_verify(i64 noundef %0, i32 noundef 3) #17
  %24 = icmp eq ptr %23, null
  br i1 %24, label %25, label %29

25:                                               ; preds = %21
  %26 = load i64, ptr @H5E_ARGS_g, align 8
  %27 = load i64, ptr @H5E_BADTYPE_g, align 8
  %28 = tail call i32 (ptr, ptr, i32, i64, i64, ptr, ...) @H5E_printf_stack(ptr noundef nonnull @.str.2, ptr noundef nonnull @__func__.H5Tlock, i32 noundef 2192, i64 noundef %26, i64 noundef %27, ptr noundef nonnull @.str.12) #17
  br label %.thread30

29:                                               ; preds = %21
  %30 = getelementptr inbounds i8, ptr %23, i64 40
  %31 = load ptr, ptr %30, align 8
  %32 = getelementptr inbounds i8, ptr %31, i64 8
  %33 = load i32, ptr %32, align 8
  %.off = add i32 %33, -3
  %switch = icmp ult i32 %.off, 2
  br i1 %switch, label %34, label %38

34:                                               ; preds = %29
  %35 = load i64, ptr @H5E_ARGS_g, align 8
  %36 = load i64, ptr @H5E_BADVALUE_g, align 8
  %37 = tail call i32 (ptr, ptr, i32, i64, i64, ptr, ...) @H5E_printf_stack(ptr noundef nonnull @.str.2, ptr noundef nonnull @__func__.H5Tlock, i32 noundef 2194, i64 noundef %35, i64 noundef %36, ptr noundef nonnull @.str.245) #17
  br label %.thread30

38:                                               ; preds = %29
  switch i32 %33, label %39 [
    i32 0, label %.sink.split
    i32 1, label %.sink.split
    i32 2, label %47
  ]

39:                                               ; preds = %38
  %40 = load i64, ptr @H5E_DATATYPE_g, align 8
  %41 = load i64, ptr @H5E_BADTYPE_g, align 8
  %42 = tail call i32 (ptr, ptr, i32, i64, i64, ptr, ...) @H5E_printf_stack(ptr noundef nonnull @.str.2, ptr noundef nonnull @__func__.H5T_lock, i32 noundef 3997, i64 noundef %40, i64 noundef %41, ptr noundef nonnull @.str.305) #17
  %43 = load i64, ptr @H5E_DATATYPE_g, align 8
  %44 = load i64, ptr @H5E_CANTINIT_g, align 8
  %45 = tail call i32 (ptr, ptr, i32, i64, i64, ptr, ...) @H5E_printf_stack(ptr noundef nonnull @.str.2, ptr noundef nonnull @__func__.H5Tlock, i32 noundef 2197, i64 noundef %43, i64 noundef %44, ptr noundef nonnull @.str.246) #17
  br label %.thread30

.thread30:                                        ; preds = %39, %34, %25
  %46 = tail call i32 @H5CX_pop(i1 noundef zeroext true) #17
  br label %.thread24

.sink.split:                                      ; preds = %38, %38
  store i32 2, ptr %32, align 8
  br label %47

47:                                               ; preds = %.sink.split, %38
  %48 = tail call i32 @H5CX_pop(i1 noundef zeroext true) #17
  br label %50

.thread24:                                        ; preds = %17, %10, %.thread30
  %49 = tail call i32 @H5E_dump_api_stack() #17
  br label %50

50:                                               ; preds = %47, %.thread24
  %.0121927 = phi i32 [ -1, %.thread24 ], [ 0, %47 ]
  ret i32 %.0121927
}